; Function Attrs: mustprogress nofree norecurse nosync nounwind willreturn memory(argmem: write) uwtable
define void @png_set_text_compression_level(ptr noalias noundef writeonly %0, i32 noundef %1) local_unnamed_addr #7 {
  %3 = icmp eq ptr %0, null
  br i1 %3, label %6, label %4

4:                                                ; preds = %2
  %5 = getelementptr inbounds i8, ptr %0, i64 464
  store i32 %1, ptr %5, align 8
  br label %6

6:                                                ; preds = %2, %4
  ret void
}